target datalayout = "e-m:e-p270:32:32-p271:32:32-p272:64:64-i64:64-i128:128-f80:128-n8:16:32:64-S128"
target triple = "x86_64-pc-linux-gnu"

%struct.OnigMatchArg = type { ptr, i64, i32, ptr, ptr, ptr, i64, ptr, i32, i64, i32, i64, i64, ptr, i64, ptr }
%struct._OnigStackType = type { i32, i64, %union.anon }
%union.anon = type { %struct.anon }
%struct.anon = type { ptr, ptr, ptr, ptr }

@MatchStackLimitSize = internal global i32 0, align 4

; Function Attrs: alwaysinline nounwind
define internal ptr @memcpy.inline(ptr noalias nonnull %0, ptr noalias nonnull %1, i64 %2) #5 {
  %4 = alloca ptr, align 8
  %5 = alloca ptr, align 8
  %6 = alloca i64, align 8
  store ptr %0, ptr %4, align 8, !tbaa !34
  store ptr %1, ptr %5, align 8, !tbaa !34
  store i64 %2, ptr %6, align 8, !tbaa !12
  %7 = load ptr, ptr %4, align 8, !tbaa !34
  %8 = load ptr, ptr %5, align 8, !tbaa !34
  %9 = load i64, ptr %6, align 8, !tbaa !12
  %10 = load ptr, ptr %4, align 8, !tbaa !34
  %11 = call i64 @llvm.objectsize.i64.p0(ptr %10, i1 false, i1 true, i1 false)
  %12 = call ptr @__memcpy_chk(ptr noundef %7, ptr noundef %8, i64 noundef %9, i64 noundef %11) #12
  ret ptr %12
}

; Function Attrs: nounwind sspstrong uwtable
define internal i32 @stack_double(ptr noundef %0, ptr noundef %1, ptr noundef %2, ptr noundef %3, ptr noundef %4) #0 {
  %6 = alloca i32, align 4
  %7 = alloca ptr, align 8
  %8 = alloca ptr, align 8
  %9 = alloca ptr, align 8
  %10 = alloca ptr, align 8
  %11 = alloca ptr, align 8
  %12 = alloca i64, align 8
  %13 = alloca ptr, align 8
  %14 = alloca ptr, align 8
  %15 = alloca ptr, align 8
  %16 = alloca ptr, align 8
  %17 = alloca i32, align 4
  %18 = alloca i32, align 4
  store ptr %0, ptr %7, align 8, !tbaa !140
  store ptr %1, ptr %8, align 8, !tbaa !140
  store ptr %2, ptr %9, align 8, !tbaa !140
  store ptr %3, ptr %10, align 8, !tbaa !56
  store ptr %4, ptr %11, align 8, !tbaa !34
  call void @llvm.lifetime.start.p0(i64 8, ptr %12) #12
  call void @llvm.lifetime.start.p0(i64 8, ptr %13) #12
  call void @llvm.lifetime.start.p0(i64 8, ptr %14) #12
  call void @llvm.lifetime.start.p0(i64 8, ptr %15) #12
  call void @llvm.lifetime.start.p0(i64 8, ptr %16) #12
  %19 = load ptr, ptr %7, align 8, !tbaa !140
  %20 = load ptr, ptr %19, align 8, !tbaa !56
  store ptr %20, ptr %14, align 8, !tbaa !56
  %21 = load ptr, ptr %8, align 8, !tbaa !140
  %22 = load ptr, ptr %21, align 8, !tbaa !56
  store ptr %22, ptr %15, align 8, !tbaa !56
  %23 = load ptr, ptr %9, align 8, !tbaa !140
  %24 = load ptr, ptr %23, align 8, !tbaa !56
  store ptr %24, ptr %16, align 8, !tbaa !56
  %25 = load ptr, ptr %15, align 8, !tbaa !56
  %26 = load ptr, ptr %14, align 8, !tbaa !56
  %27 = ptrtoint ptr %25 to i64
  %28 = ptrtoint ptr %26 to i64
  %29 = sub i64 %27, %28
  %30 = sdiv exact i64 %29, 48
  store i64 %30, ptr %12, align 8, !tbaa !12
  %31 = load ptr, ptr %14, align 8, !tbaa !56
  %32 = load ptr, ptr %10, align 8, !tbaa !56
  %33 = icmp eq ptr %31, %32
  br i1 %33, label %34, label %74

34:                                               ; preds = %5
  %35 = load ptr, ptr %11, align 8, !tbaa !34
  %36 = getelementptr inbounds nuw %struct.OnigMatchArg, ptr %35, i32 0, i32 0
  %37 = load ptr, ptr %36, align 8, !tbaa !36
  %38 = icmp eq ptr %37, null
  br i1 %38, label %39, label %74

39:                                               ; preds = %34
  %40 = load i64, ptr %12, align 8, !tbaa !12
  %41 = mul i64 48, %40
  %42 = mul i64 %41, 2
  %43 = call noalias ptr @malloc(i64 noundef %42) #13
  store ptr %43, ptr %13, align 8, !tbaa !56
  %44 = load ptr, ptr %13, align 8, !tbaa !56
  %45 = icmp eq ptr %44, null
  br i1 %45, label %46, label %66

46:                                               ; preds = %39
  br label %47

47:                                               ; preds = %46
  %48 = load ptr, ptr %14, align 8, !tbaa !56
  %49 = load ptr, ptr %10, align 8, !tbaa !56
  %50 = icmp ne ptr %48, %49
  br i1 %50, label %51, label %63

51:                                               ; preds = %47
  %52 = load ptr, ptr %14, align 8, !tbaa !56
  %53 = load ptr, ptr %11, align 8, !tbaa !34
  %54 = getelementptr inbounds nuw %struct.OnigMatchArg, ptr %53, i32 0, i32 0
  store ptr %52, ptr %54, align 8, !tbaa !36
  %55 = load ptr, ptr %15, align 8, !tbaa !56
  %56 = load ptr, ptr %14, align 8, !tbaa !56
  %57 = ptrtoint ptr %55 to i64
  %58 = ptrtoint ptr %56 to i64
  %59 = sub i64 %57, %58
  %60 = sdiv exact i64 %59, 48
  %61 = load ptr, ptr %11, align 8, !tbaa !34
  %62 = getelementptr inbounds nuw %struct.OnigMatchArg, ptr %61, i32 0, i32 1
  store i64 %60, ptr %62, align 8, !tbaa !59
  br label %63

63:                                               ; preds = %51, %47
  br label %64

64:                                               ; preds = %63
  br label %65

65:                                               ; preds = %64
  store i32 -5, ptr %6, align 4
  store i32 1, ptr %17, align 4
  br label %147

66:                                               ; preds = %39
  %67 = load ptr, ptr %13, align 8, !tbaa !56
  %68 = load ptr, ptr %14, align 8, !tbaa !56
  %69 = load i64, ptr %12, align 8, !tbaa !12
  %70 = mul i64 %69, 48
  %71 = call ptr @memcpy.inline(ptr noundef %67, ptr noundef %68, i64 noundef %70) #12
  %72 = load i64, ptr %12, align 8, !tbaa !12
  %73 = mul i64 %72, 2
  store i64 %73, ptr %12, align 8, !tbaa !12
  br label %131

74:                                               ; preds = %34, %5
  call void @llvm.lifetime.start.p0(i64 4, ptr %18) #12
  %75 = load i32, ptr @MatchStackLimitSize, align 4, !tbaa !26
  store i32 %75, ptr %18, align 4, !tbaa !26
  %76 = load i64, ptr %12, align 8, !tbaa !12
  %77 = mul i64 %76, 2
  store i64 %77, ptr %12, align 8, !tbaa !12
  %78 = load i32, ptr %18, align 4, !tbaa !26
  %79 = icmp ne i32 %78, 0
  br i1 %79, label %80, label %100

80:                                               ; preds = %74
  %81 = load i64, ptr %12, align 8, !tbaa !12
  %82 = load i32, ptr %18, align 4, !tbaa !26
  %83 = zext i32 %82 to i64
  %84 = icmp ugt i64 %81, %83
  br i1 %84, label %85, label %100

85:                                               ; preds = %80
  %86 = load ptr, ptr %15, align 8, !tbaa !56
  %87 = load ptr, ptr %14, align 8, !tbaa !56
  %88 = ptrtoint ptr %86 to i64
  %89 = ptrtoint ptr %87 to i64
  %90 = sub i64 %88, %89
  %91 = sdiv exact i64 %90, 48
  %92 = trunc i64 %91 to i32
  %93 = load i32, ptr %18, align 4, !tbaa !26
  %94 = icmp eq i32 %92, %93
  br i1 %94, label %95, label %96

95:                                               ; preds = %85
  store i32 -15, ptr %6, align 4
  store i32 1, ptr %17, align 4
  br label %128

96:                                               ; preds = %85
  %97 = load i32, ptr %18, align 4, !tbaa !26
  %98 = zext i32 %97 to i64
  store i64 %98, ptr %12, align 8, !tbaa !12
  br label %99

99:                                               ; preds = %96
  br label %100

100:                                              ; preds = %99, %80, %74
  %101 = load ptr, ptr %14, align 8, !tbaa !56
  %102 = load i64, ptr %12, align 8, !tbaa !12
  %103 = mul i64 48, %102
  %104 = call ptr @realloc(ptr noundef %101, i64 noundef %103) #14
  store ptr %104, ptr %13, align 8, !tbaa !56
  %105 = load ptr, ptr %13, align 8, !tbaa !56
  %106 = icmp eq ptr %105, null
  br i1 %106, label %107, label %127

107:                                              ; preds = %100
  br label %108

108:                                              ; preds = %107
  %109 = load ptr, ptr %14, align 8, !tbaa !56
  %110 = load ptr, ptr %10, align 8, !tbaa !56
  %111 = icmp ne ptr %109, %110
  br i1 %111, label %112, label %124

112:                                              ; preds = %108
  %113 = load ptr, ptr %14, align 8, !tbaa !56
  %114 = load ptr, ptr %11, align 8, !tbaa !34
  %115 = getelementptr inbounds nuw %struct.OnigMatchArg, ptr %114, i32 0, i32 0
  store ptr %113, ptr %115, align 8, !tbaa !36
  %116 = load ptr, ptr %15, align 8, !tbaa !56
  %117 = load ptr, ptr %14, align 8, !tbaa !56
  %118 = ptrtoint ptr %116 to i64
  %119 = ptrtoint ptr %117 to i64
  %120 = sub i64 %118, %119
  %121 = sdiv exact i64 %120, 48
  %122 = load ptr, ptr %11, align 8, !tbaa !34
  %123 = getelementptr inbounds nuw %struct.OnigMatchArg, ptr %122, i32 0, i32 1
  store i64 %121, ptr %123, align 8, !tbaa !59
  br label %124

124:                                              ; preds = %112, %108
  br label %125

125:                                              ; preds = %124
  br label %126

126:                                              ; preds = %125
  store i32 -5, ptr %6, align 4
  store i32 1, ptr %17, align 4
  br label %128

127:                                              ; preds = %100
  store i32 0, ptr %17, align 4
  br label %128

128:                                              ; preds = %127, %126, %95
  call void @llvm.lifetime.end.p0(i64 4, ptr %18) #12
  %129 = load i32, ptr %17, align 4
  switch i32 %129, label %147 [
    i32 0, label %130
  ]

130:                                              ; preds = %128
  br label %131

131:                                              ; preds = %130, %66
  %132 = load ptr, ptr %13, align 8, !tbaa !56
  %133 = load ptr, ptr %16, align 8, !tbaa !56
  %134 = load ptr, ptr %14, align 8, !tbaa !56
  %135 = ptrtoint ptr %133 to i64
  %136 = ptrtoint ptr %134 to i64
  %137 = sub i64 %135, %136
  %138 = sdiv exact i64 %137, 48
  %139 = getelementptr %struct._OnigStackType, ptr %132, i64 %138
  %140 = load ptr, ptr %9, align 8, !tbaa !140
  store ptr %139, ptr %140, align 8, !tbaa !56
  %141 = load ptr, ptr %13, align 8, !tbaa !56
  %142 = load ptr, ptr %7, align 8, !tbaa !140
  store ptr %141, ptr %142, align 8, !tbaa !56
  %143 = load ptr, ptr %13, align 8, !tbaa !56
  %144 = load i64, ptr %12, align 8, !tbaa !12
  %145 = getelementptr %struct._OnigStackType, ptr %143, i64 %144
  %146 = load ptr, ptr %8, align 8, !tbaa !140
  store ptr %145, ptr %146, align 8, !tbaa !56
  store i32 0, ptr %6, align 4
  store i32 1, ptr %17, align 4
  br label %147

147:                                              ; preds = %131, %128, %65
  call void @llvm.lifetime.end.p0(i64 8, ptr %16) #12
  call void @llvm.lifetime.end.p0(i64 8, ptr %15) #12
  call void @llvm.lifetime.end.p0(i64 8, ptr %14) #12
  call void @llvm.lifetime.end.p0(i64 8, ptr %13) #12
  call void @llvm.lifetime.end.p0(i64 8, ptr %12) #12
  %148 = load i32, ptr %6, align 4
  ret i32 %148
}