; Function Attrs: nounwind sspstrong uwtable
define internal fastcc range(i32 -15, 1) i32 @stack_double(ptr noundef nonnull captures(none) %0, ptr noundef nonnull captures(none) %1, ptr noundef nonnull captures(none) %2, ptr noundef readnone captures(address) %3, ptr noundef nonnull captures(none) %4) unnamed_addr #0 {
  %6 = load ptr, ptr %0, align 8, !tbaa !50
  %7 = load ptr, ptr %1, align 8, !tbaa !50
  %8 = load ptr, ptr %2, align 8, !tbaa !50
  %9 = ptrtoint ptr %7 to i64
  %10 = ptrtoint ptr %6 to i64
  %11 = sub i64 %9, %10
  %12 = sdiv exact i64 %11, 48
  %13 = icmp eq ptr %6, %3
  br i1 %13, label %14, label %23

14:                                               ; preds = %5
  %15 = load ptr, ptr %4, align 8, !tbaa !30
  %16 = icmp eq ptr %15, null
  br i1 %16, label %17, label %23

17:                                               ; preds = %14
  %18 = shl i64 %11, 1
  %19 = tail call noalias ptr @malloc(i64 noundef %18) #22
  %20 = icmp eq ptr %19, null
  br i1 %20, label %.thread, label %21

21:                                               ; preds = %17
  tail call void @llvm.memcpy.p0.p0.i64(ptr noundef nonnull align 1 %19, ptr noundef nonnull align 1 %6, i64 noundef %11, i1 noundef false) #21
  %22 = shl nsw i64 %12, 1
  br label %39

23:                                               ; preds = %14, %5
  %24 = load i32, ptr @MatchStackLimitSize, align 4, !tbaa !29
  %25 = shl nsw i64 %12, 1
  %.not = icmp eq i32 %24, 0
  br i1 %.not, label %32, label %26

26:                                               ; preds = %23
  %27 = zext i32 %24 to i64
  %28 = icmp ugt i64 %25, %27
  br i1 %28, label %29, label %32

29:                                               ; preds = %26
  %30 = trunc i64 %12 to i32
  %31 = icmp eq i32 %24, %30
  br i1 %31, label %.thread, label %32

32:                                               ; preds = %29, %26, %23
  %.151 = phi i64 [ %25, %26 ], [ %25, %23 ], [ %27, %29 ]
  %33 = mul i64 %.151, 48
  %34 = tail call ptr @realloc(ptr noundef %6, i64 noundef %33) #23
  %35 = icmp eq ptr %34, null
  br i1 %35, label %36, label %39

36:                                               ; preds = %32
  br i1 %13, label %.thread, label %37

37:                                               ; preds = %36
  store ptr %6, ptr %4, align 8, !tbaa !30
  %38 = getelementptr inbounds nuw i8, ptr %4, i64 8
  store i64 %12, ptr %38, align 8, !tbaa !52
  br label %.thread

39:                                               ; preds = %32, %21
  %.052 = phi ptr [ %19, %21 ], [ %34, %32 ]
  %.050 = phi i64 [ %22, %21 ], [ %.151, %32 ]
  %40 = ptrtoint ptr %8 to i64
  %41 = sub i64 %40, %10
  %42 = getelementptr i8, ptr %.052, i64 %41
  store ptr %42, ptr %2, align 8, !tbaa !50
  store ptr %.052, ptr %0, align 8, !tbaa !50
  %43 = getelementptr %struct._OnigStackType, ptr %.052, i64 %.050
  store ptr %43, ptr %1, align 8, !tbaa !50
  br label %.thread

.thread:                                          ; preds = %36, %37, %29, %17, %39
  %.0 = phi i32 [ 0, %39 ], [ -5, %17 ], [ -5, %36 ], [ -5, %37 ], [ -15, %29 ]
  ret i32 %.0
}